; Function Attrs: mustprogress uwtable
define noundef zeroext i1 @_ZN14dtPathCorridor20optimizePathTopologyEP14dtNavMeshQueryPK13dtQueryFilter(ptr noundef nonnull align 8 dereferenceable(40) %0, ptr noundef %1, ptr noundef %2) local_unnamed_addr #2 align 2 {
  %4 = alloca [32 x i32], align 16
  %5 = alloca i32, align 4
  %6 = tail call noundef ptr @_Z21dtAssertFailGetCustomv()
  %7 = icmp eq ptr %6, null
  %8 = icmp ne ptr %1, null
  %or.cond3 = or i1 %8, %7
  br i1 %or.cond3, label %10, label %9

9:                                                ; preds = %3
  tail call void %6(ptr noundef nonnull @.str.5, ptr noundef nonnull @.str.1, i32 noundef 355)
  br label %10

10:                                               ; preds = %9, %3
  %11 = tail call noundef ptr @_Z21dtAssertFailGetCustomv()
  %12 = icmp eq ptr %11, null
  %13 = icmp ne ptr %2, null
  %or.cond5 = or i1 %13, %12
  br i1 %or.cond5, label %15, label %14

14:                                               ; preds = %10
  tail call void %11(ptr noundef nonnull @.str.6, ptr noundef nonnull @.str.1, i32 noundef 356)
  br label %15

15:                                               ; preds = %14, %10
  %16 = tail call noundef ptr @_Z21dtAssertFailGetCustomv()
  %17 = icmp ne ptr %16, null
  %18 = getelementptr inbounds nuw i8, ptr %0, i64 24
  %19 = load ptr, ptr %18, align 8
  %.not = icmp eq ptr %19, null
  %or.cond24 = select i1 %17, i1 %.not, i1 false
  br i1 %or.cond24, label %20, label %21

20:                                               ; preds = %15
  tail call void %16(ptr noundef nonnull @.str.3, ptr noundef nonnull @.str.1, i32 noundef 357)
  br label %21

21:                                               ; preds = %20, %15
  %22 = getelementptr inbounds nuw i8, ptr %0, i64 32
  %23 = load i32, ptr %22, align 8
  %24 = icmp slt i32 %23, 3
  br i1 %24, label %77, label %25

25:                                               ; preds = %21
  store i32 0, ptr %5, align 4
  %26 = load ptr, ptr %18, align 8
  %27 = load i32, ptr %26, align 4
  %28 = zext nneg i32 %23 to i64
  %29 = getelementptr i32, ptr %26, i64 %28
  %30 = getelementptr i8, ptr %29, i64 -4
  %31 = load i32, ptr %30, align 4
  %32 = getelementptr inbounds nuw i8, ptr %0, i64 12
  %33 = tail call noundef i32 @_ZN14dtNavMeshQuery18initSlicedFindPathEjjPKfS1_PK13dtQueryFilterj(ptr noundef nonnull align 8 dereferenceable(104) %1, i32 noundef %27, i32 noundef %31, ptr noundef nonnull %0, ptr noundef nonnull %32, ptr noundef %2, i32 noundef 0)
  %34 = tail call noundef i32 @_ZN14dtNavMeshQuery20updateSlicedFindPathEiPi(ptr noundef nonnull align 8 dereferenceable(104) %1, i32 noundef 32, ptr noundef null)
  %35 = load ptr, ptr %18, align 8
  %36 = load i32, ptr %22, align 8
  %37 = call noundef i32 @_ZN14dtNavMeshQuery29finalizeSlicedFindPathPartialEPKjiPjPii(ptr noundef nonnull align 8 dereferenceable(104) %1, ptr noundef %35, i32 noundef %36, ptr noundef nonnull %4, ptr noundef nonnull %5, i32 noundef 32)
  %38 = and i32 %37, 1073741824
  %39 = icmp ne i32 %38, 0
  %40 = load i32, ptr %5, align 4
  %41 = icmp sgt i32 %40, 0
  %or.cond = select i1 %39, i1 %41, i1 false
  br i1 %or.cond, label %.split.us.preheader.i, label %77

.split.us.preheader.i:                            ; preds = %25
  %42 = load ptr, ptr %18, align 8
  %43 = load i32, ptr %22, align 8
  %44 = getelementptr inbounds nuw i8, ptr %0, i64 36
  %45 = load i32, ptr %44, align 4
  %46 = zext nneg i32 %40 to i64
  %47 = zext i32 %43 to i64
  br label %.split.us.i

.split.us.i:                                      ; preds = %._crit_edge.us.i, %.split.us.preheader.i
  %indvars.iv67.i = phi i64 [ %47, %.split.us.preheader.i ], [ %indvars.iv.next68.i, %._crit_edge.us.i ]
  %.050.us.i = phi i32 [ -1, %.split.us.preheader.i ], [ %.353.us.i, %._crit_edge.us.i ]
  %.045.us.i = phi i32 [ -1, %.split.us.preheader.i ], [ %.3.us.i, %._crit_edge.us.i ]
  %indvars.iv.next68.i = add nsw i64 %indvars.iv67.i, -1
  %indvars.i = trunc i64 %indvars.iv.next68.i to i32
  %48 = trunc nuw i64 %indvars.iv67.i to i32
  %49 = icmp sgt i32 %48, 0
  br i1 %49, label %.preheader.us.i, label %.split63.us.i

50:                                               ; preds = %.preheader.us.i, %50
  %indvars.iv.i = phi i64 [ %46, %.preheader.us.i ], [ %indvars.iv.next.i, %50 ]
  %.259.us.i = phi i32 [ %.045.us.i, %.preheader.us.i ], [ %.3.us.i, %50 ]
  %.04757.us.i = phi i1 [ false, %.preheader.us.i ], [ %.148.us.i, %50 ]
  %.25256.us.i = phi i32 [ %.050.us.i, %.preheader.us.i ], [ %.353.us.i, %50 ]
  %indvars.iv.next.i = add nsw i64 %indvars.iv.i, -1
  %51 = getelementptr inbounds nuw i32, ptr %4, i64 %indvars.iv.next.i
  %52 = load i32, ptr %51, align 4
  %53 = icmp eq i32 %58, %52
  %54 = trunc nuw nsw i64 %indvars.iv.next.i to i32
  %.353.us.i = select i1 %53, i32 %54, i32 %.25256.us.i
  %.148.us.i = select i1 %53, i1 true, i1 %.04757.us.i
  %.3.us.i = select i1 %53, i32 %indvars.i, i32 %.259.us.i
  %55 = icmp sgt i64 %indvars.iv.i, 1
  br i1 %55, label %50, label %._crit_edge.us.i, !llvm.loop !10

.preheader.us.i:                                  ; preds = %.split.us.i
  %56 = and i64 %indvars.iv.next68.i, 4294967295
  %57 = getelementptr inbounds nuw i32, ptr %42, i64 %56
  %58 = load i32, ptr %57, align 4
  br label %50

._crit_edge.us.i:                                 ; preds = %50
  br i1 %.148.us.i, label %.split63.us.i, label %.split.us.i, !llvm.loop !11

.split63.us.i:                                    ; preds = %._crit_edge.us.i, %.split.us.i
  %.us-phi.i = phi i32 [ %.050.us.i, %.split.us.i ], [ %.353.us.i, %._crit_edge.us.i ]
  %.us-phi64.i = phi i32 [ %.045.us.i, %.split.us.i ], [ %.3.us.i, %._crit_edge.us.i ]
  %59 = icmp eq i32 %.us-phi64.i, -1
  %60 = icmp slt i32 %.us-phi.i, 1
  %or.cond55.i = select i1 %59, i1 true, i1 %60
  br i1 %or.cond55.i, label %_Z28dtMergeCorridorStartShortcutPjiiPKji.exit, label %61

61:                                               ; preds = %.split63.us.i
  %62 = sub nsw i32 %43, %.us-phi64.i
  %63 = call noundef i32 @llvm.smax.i32(i32 %62, i32 0)
  %64 = add nuw nsw i32 %63, %.us-phi.i
  %65 = icmp sgt i32 %64, %45
  %66 = sub nsw i32 %45, %.us-phi.i
  %spec.select.i = select i1 %65, i32 %66, i32 %63
  %.not.i = icmp eq i32 %spec.select.i, 0
  %.pre = zext nneg i32 %.us-phi.i to i64
  br i1 %.not.i, label %.lr.ph.i.preheader, label %67

67:                                               ; preds = %61
  %68 = getelementptr inbounds nuw i32, ptr %42, i64 %.pre
  %69 = zext nneg i32 %.us-phi64.i to i64
  %70 = getelementptr inbounds nuw i32, ptr %42, i64 %69
  %71 = sext i32 %spec.select.i to i64
  %72 = shl nsw i64 %71, 2
  call void @llvm.memmove.p0.p0.i64(ptr nonnull align 4 %68, ptr align 4 %70, i64 %72, i1 false)
  br label %.lr.ph.i.preheader

.lr.ph.i.preheader:                               ; preds = %61, %67
  br label %.lr.ph.i

.lr.ph.i:                                         ; preds = %.lr.ph.i.preheader, %.lr.ph.i
  %indvars.iv70.i = phi i64 [ %indvars.iv.next71.i, %.lr.ph.i ], [ 0, %.lr.ph.i.preheader ]
  %73 = getelementptr inbounds nuw i32, ptr %4, i64 %indvars.iv70.i
  %74 = load i32, ptr %73, align 4
  %75 = getelementptr inbounds nuw i32, ptr %42, i64 %indvars.iv70.i
  store i32 %74, ptr %75, align 4
  %indvars.iv.next71.i = add nuw nsw i64 %indvars.iv70.i, 1
  %exitcond.not.i = icmp eq i64 %indvars.iv.next71.i, %.pre
  br i1 %exitcond.not.i, label %._crit_edge.i, label %.lr.ph.i, !llvm.loop !12

._crit_edge.i:                                    ; preds = %.lr.ph.i
  %76 = add nsw i32 %spec.select.i, %.us-phi.i
  br label %_Z28dtMergeCorridorStartShortcutPjiiPKji.exit

_Z28dtMergeCorridorStartShortcutPjiiPKji.exit:    ; preds = %.split63.us.i, %._crit_edge.i
  %.044.i = phi i32 [ %76, %._crit_edge.i ], [ %43, %.split63.us.i ]
  store i32 %.044.i, ptr %22, align 8
  br label %77

77:                                               ; preds = %25, %21, %_Z28dtMergeCorridorStartShortcutPjiiPKji.exit
  %.0 = phi i1 [ true, %_Z28dtMergeCorridorStartShortcutPjiiPKji.exit ], [ false, %21 ], [ false, %25 ]
  ret i1 %.0
}